target datalayout = "e-m:e-p270:32:32-p271:32:32-p272:64:64-i64:64-i128:128-f80:128-n8:16:32:64-S128"
target triple = "x86_64-pc-linux-gnu"

%class.Timer = type { %"class.std::__cxx11::basic_string", i32, i64, i64, %"class.std::chrono::time_point", i64 }
%"class.std::__cxx11::basic_string" = type { %"struct.std::__cxx11::basic_string<char>::_Alloc_hider", i64, %union.anon }
%"struct.std::__cxx11::basic_string<char>::_Alloc_hider" = type { ptr }
%union.anon = type { i64, [8 x i8] }
%"class.std::chrono::time_point" = type { %"class.std::chrono::duration" }
%"class.std::chrono::duration" = type { i64 }

; Function Attrs: mustprogress nounwind uwtable
define void @_ZN5Timer5StartEv(ptr noundef nonnull align 8 dereferenceable(72) %0) #5 align 2 {
  %2 = alloca ptr, align 8
  %3 = alloca %"class.std::chrono::time_point", align 8
  store ptr %0, ptr %2, align 8
  %4 = load ptr, ptr %2, align 8
  %5 = call i64 @_ZNSt6chrono3_V212steady_clock3nowEv() #3
  %6 = getelementptr inbounds nuw %"class.std::chrono::time_point", ptr %3, i32 0, i32 0
  %7 = getelementptr inbounds nuw %"class.std::chrono::duration", ptr %6, i32 0, i32 0
  store i64 %5, ptr %7, align 8
  %8 = getelementptr inbounds nuw %class.Timer, ptr %4, i32 0, i32 4
  call void @llvm.memcpy.p0.p0.i64(ptr align 8 %8, ptr align 8 %3, i64 8, i1 false)
  %9 = call i64 @clock() #3
  %10 = getelementptr inbounds nuw %class.Timer, ptr %4, i32 0, i32 5
  store i64 %9, ptr %10, align 8
  ret void
}