; Function Attrs: mustprogress nounwind uwtable
define void @_ZN5Timer5StartEv(ptr noundef nonnull writeonly align 8 captures(none) dereferenceable(72) initializes((56, 72)) %0) local_unnamed_addr #4 align 2 {
  %2 = tail call i64 @_ZNSt6chrono3_V212steady_clock3nowEv() #9
  %3 = getelementptr inbounds nuw i8, ptr %0, i64 56
  store i64 %2, ptr %3, align 8
  %4 = tail call i64 @clock() #9
  %5 = getelementptr inbounds nuw i8, ptr %0, i64 64
  store i64 %4, ptr %5, align 8
  ret void
}